target datalayout = "e-m:e-p270:32:32-p271:32:32-p272:64:64-i64:64-i128:128-f80:128-n8:16:32:64-S128"
target triple = "x86_64-unknown-linux-gnu"

%struct.QppEntry = type { i64, i16, i32, %struct.VariLenAffix }
%struct.VariLenAffix = type { i32, i64, i32 }

; Function Attrs: nounwind sspstrong uwtable
define internal zeroext i1 @qpp_cmp_func(ptr noundef %obj, ptr noundef %userp) #0 {
entry:
  %obj.addr = alloca ptr, align 8
  %userp.addr = alloca ptr, align 8
  %e1 = alloca ptr, align 8
  %e2 = alloca ptr, align 8
  store ptr %obj, ptr %obj.addr, align 8
  store ptr %userp, ptr %userp.addr, align 8
  %0 = load ptr, ptr %obj.addr, align 8
  store ptr %0, ptr %e1, align 8
  %1 = load ptr, ptr %userp.addr, align 8
  store ptr %1, ptr %e2, align 8
  %2 = load ptr, ptr %e1, align 8
  %dev = getelementptr inbounds %struct.QppEntry, ptr %2, i32 0, i32 0
  %3 = load i64, ptr %dev, align 8
  %4 = load ptr, ptr %e2, align 8
  %dev1 = getelementptr inbounds %struct.QppEntry, ptr %4, i32 0, i32 0
  %5 = load i64, ptr %dev1, align 8
  %cmp = icmp eq i64 %3, %5
  br i1 %cmp, label %land.rhs, label %land.end

land.rhs:                                         ; preds = %entry
  %6 = load ptr, ptr %e1, align 8
  %ino_prefix = getelementptr inbounds %struct.QppEntry, ptr %6, i32 0, i32 1
  %7 = load i16, ptr %ino_prefix, align 8
  %conv = zext i16 %7 to i32
  %8 = load ptr, ptr %e2, align 8
  %ino_prefix2 = getelementptr inbounds %struct.QppEntry, ptr %8, i32 0, i32 1
  %9 = load i16, ptr %ino_prefix2, align 8
  %conv3 = zext i16 %9 to i32
  %cmp4 = icmp eq i32 %conv, %conv3
  br label %land.end

land.end:                                         ; preds = %land.rhs, %entry
  %10 = phi i1 [ false, %entry ], [ %cmp4, %land.rhs ]
  ret i1 %10
}